target datalayout = "e-m:e-p270:32:32-p271:32:32-p272:64:64-i64:64-i128:128-f80:128-n8:16:32:64-S128"
target triple = "x86_64-pc-linux-gnu"

%struct.Vec_Int_t_ = type { i32, i32, ptr }
%struct.Fx_Man_t_ = type { ptr, i32, i32, ptr, ptr, ptr, ptr, ptr, ptr, ptr, ptr, ptr, ptr, ptr, ptr, ptr, i64, i32, i32, i32, i32, i32, i32, i32, [3 x i32] }
%struct.Hsh_VecMan_t_ = type { ptr, ptr, ptr, %struct.Vec_Int_t_, %struct.Vec_Int_t_, %struct.Vec_Int_t_ }
%struct.Vec_Flt_t_ = type { i32, i32, ptr }
%struct.Hsh_VecObj_t_ = type { i32, i32, [0 x i32] }
%struct.timespec = type { i64, i64 }

@.str.14 = private unnamed_addr constant [5 x i8] c"Time\00", align 1
@.str.15 = private unnamed_addr constant [5 x i8] c"%s =\00", align 1
@.str.16 = private unnamed_addr constant [11 x i8] c"%9.2f sec\0A\00", align 1
@.str.19 = private unnamed_addr constant [7 x i8] c"%4d : \00", align 1
@.str.20 = private unnamed_addr constant [11 x i8] c"Div %7d : \00", align 1
@.str.21 = private unnamed_addr constant [16 x i8] c"Weight %12.5f  \00", align 1
@.str.22 = private unnamed_addr constant [2 x i8] c" \00", align 1
@.str.23 = private unnamed_addr constant [12 x i8] c"Lits =%7d  \00", align 1
@.str.24 = private unnamed_addr constant [12 x i8] c"Divs =%8d  \00", align 1
@.str.25 = private unnamed_addr constant [6 x i8] c"%d(1)\00", align 1
@.str.26 = private unnamed_addr constant [4 x i8] c" + \00", align 1
@.str.27 = private unnamed_addr constant [6 x i8] c"%d(2)\00", align 1

; Function Attrs: inlinehint nounwind uwtable
define internal ptr @Vec_IntEntryP(ptr noundef %0, i32 noundef %1) #2 {
  %3 = alloca ptr, align 8
  %4 = alloca i32, align 4
  store ptr %0, ptr %3, align 8, !tbaa !32
  store i32 %1, ptr %4, align 4, !tbaa !10
  %5 = load ptr, ptr %3, align 8, !tbaa !32
  %6 = getelementptr inbounds nuw %struct.Vec_Int_t_, ptr %5, i32 0, i32 2
  %7 = load ptr, ptr %6, align 8, !tbaa !46
  %8 = load i32, ptr %4, align 4, !tbaa !10
  %9 = sext i32 %8 to i64
  %10 = getelementptr inbounds i32, ptr %7, i64 %9
  ret ptr %10
}

; Function Attrs: inlinehint nounwind uwtable
define internal i32 @Abc_Lit2Var(i32 noundef %0) #2 {
  %2 = alloca i32, align 4
  store i32 %0, ptr %2, align 4, !tbaa !10
  %3 = load i32, ptr %2, align 4, !tbaa !10
  %4 = ashr i32 %3, 1
  ret i32 %4
}

; Function Attrs: inlinehint nounwind uwtable
define internal i32 @Abc_LitIsCompl(i32 noundef %0) #2 {
  %2 = alloca i32, align 4
  store i32 %0, ptr %2, align 4, !tbaa !10
  %3 = load i32, ptr %2, align 4, !tbaa !10
  %4 = and i32 %3, 1
  ret i32 %4
}

; Function Attrs: inlinehint nounwind uwtable
define internal i32 @Vec_IntEntry(ptr noundef %0, i32 noundef %1) #2 {
  %3 = alloca ptr, align 8
  %4 = alloca i32, align 4
  store ptr %0, ptr %3, align 8, !tbaa !32
  store i32 %1, ptr %4, align 4, !tbaa !10
  %5 = load ptr, ptr %3, align 8, !tbaa !32
  %6 = getelementptr inbounds nuw %struct.Vec_Int_t_, ptr %5, i32 0, i32 2
  %7 = load ptr, ptr %6, align 8, !tbaa !46
  %8 = load i32, ptr %4, align 4, !tbaa !10
  %9 = sext i32 %8 to i64
  %10 = getelementptr inbounds i32, ptr %7, i64 %9
  %11 = load i32, ptr %10, align 4, !tbaa !10
  ret i32 %11
}

; Function Attrs: inlinehint nounwind uwtable
define internal ptr @Hsh_VecObj(ptr noundef %0, i32 noundef %1) #2 {
  %3 = alloca ptr, align 8
  %4 = alloca i32, align 4
  store ptr %0, ptr %3, align 8, !tbaa !98
  store i32 %1, ptr %4, align 4, !tbaa !10
  %5 = load i32, ptr %4, align 4, !tbaa !10
  %6 = icmp eq i32 %5, -1
  br i1 %6, label %7, label %8

7:                                                ; preds = %2
  br label %18

8:                                                ; preds = %2
  %9 = load ptr, ptr %3, align 8, !tbaa !98
  %10 = getelementptr inbounds nuw %struct.Hsh_VecMan_t_, ptr %9, i32 0, i32 1
  %11 = load ptr, ptr %10, align 8, !tbaa !101
  %12 = load ptr, ptr %3, align 8, !tbaa !98
  %13 = getelementptr inbounds nuw %struct.Hsh_VecMan_t_, ptr %12, i32 0, i32 2
  %14 = load ptr, ptr %13, align 8, !tbaa !102
  %15 = load i32, ptr %4, align 4, !tbaa !10
  %16 = call i32 @Vec_IntEntry(ptr noundef %14, i32 noundef %15)
  %17 = call ptr @Vec_IntEntryP(ptr noundef %11, i32 noundef %16)
  br label %18

18:                                               ; preds = %8, %7
  %19 = phi ptr [ null, %7 ], [ %17, %8 ]
  ret ptr %19
}

; Function Attrs: inlinehint nounwind uwtable
define internal void @Abc_PrintTime(i32 noundef %0, ptr noundef %1, i64 noundef %2) #2 {
  %4 = alloca i32, align 4
  %5 = alloca ptr, align 8
  %6 = alloca i64, align 8
  store i32 %0, ptr %4, align 4, !tbaa !10
  store ptr %1, ptr %5, align 8, !tbaa !31
  store i64 %2, ptr %6, align 8, !tbaa !72
  %7 = load ptr, ptr %5, align 8, !tbaa !31
  call void (i32, ptr, ...) @Abc_Print(i32 noundef 1, ptr noundef @.str.15, ptr noundef %7)
  %8 = load i64, ptr %6, align 8, !tbaa !72
  %9 = sitofp i64 %8 to double
  %10 = fmul double 1.000000e+00, %9
  %11 = fdiv double %10, 1.000000e+06
  call void (i32, ptr, ...) @Abc_Print(i32 noundef 1, ptr noundef @.str.16, double noundef %11)
  ret void
}

; Function Attrs: inlinehint nounwind uwtable
define internal i64 @Abc_Clock() #2 {
  %1 = alloca i64, align 8
  %2 = alloca %struct.timespec, align 8
  %3 = alloca i32, align 4
  %4 = alloca i64, align 8
  call void @llvm.lifetime.start.p0(i64 16, ptr %2) #13
  %5 = call i32 @clock_gettime(i32 noundef 1, ptr noundef %2) #13
  %6 = icmp slt i32 %5, 0
  br i1 %6, label %7, label %8

7:                                                ; preds = %0
  store i64 -1, ptr %1, align 8
  store i32 1, ptr %3, align 4
  br label %19

8:                                                ; preds = %0
  call void @llvm.lifetime.start.p0(i64 8, ptr %4) #13
  %9 = getelementptr inbounds nuw %struct.timespec, ptr %2, i32 0, i32 0
  %10 = load i64, ptr %9, align 8, !tbaa !205
  %11 = mul nsw i64 %10, 1000000
  store i64 %11, ptr %4, align 8, !tbaa !72
  %12 = getelementptr inbounds nuw %struct.timespec, ptr %2, i32 0, i32 1
  %13 = load i64, ptr %12, align 8, !tbaa !207
  %14 = mul nsw i64 %13, 1000000
  %15 = sdiv i64 %14, 1000000000
  %16 = load i64, ptr %4, align 8, !tbaa !72
  %17 = add nsw i64 %16, %15
  store i64 %17, ptr %4, align 8, !tbaa !72
  %18 = load i64, ptr %4, align 8, !tbaa !72
  store i64 %18, ptr %1, align 8
  store i32 1, ptr %3, align 4
  call void @llvm.lifetime.end.p0(i64 8, ptr %4) #13
  br label %19

19:                                               ; preds = %8, %7
  call void @llvm.lifetime.end.p0(i64 16, ptr %2) #13
  %20 = load i64, ptr %1, align 8
  ret i64 %20
}

; Function Attrs: inlinehint nounwind uwtable
define internal i32 @Hsh_VecSize(ptr noundef %0) #2 {
  %2 = alloca ptr, align 8
  store ptr %0, ptr %2, align 8, !tbaa !98
  %3 = load ptr, ptr %2, align 8, !tbaa !98
  %4 = getelementptr inbounds nuw %struct.Hsh_VecMan_t_, ptr %3, i32 0, i32 2
  %5 = load ptr, ptr %4, align 8, !tbaa !102
  %6 = call i32 @Vec_IntSize(ptr noundef %5)
  ret i32 %6
}

; Function Attrs: inlinehint nounwind uwtable
define internal i32 @Vec_IntSize(ptr noundef %0) #2 {
  %2 = alloca ptr, align 8
  store ptr %0, ptr %2, align 8, !tbaa !32
  %3 = load ptr, ptr %2, align 8, !tbaa !32
  %4 = getelementptr inbounds nuw %struct.Vec_Int_t_, ptr %3, i32 0, i32 1
  %5 = load i32, ptr %4, align 4, !tbaa !44
  ret i32 %5
}

; Function Attrs: inlinehint nounwind uwtable
define internal void @Fx_PrintDivArray(ptr noundef %0) #2 {
  %2 = alloca ptr, align 8
  %3 = alloca i32, align 4
  %4 = alloca i32, align 4
  store ptr %0, ptr %2, align 8, !tbaa !32
  call void @llvm.lifetime.start.p0(i64 4, ptr %3) #13
  call void @llvm.lifetime.start.p0(i64 4, ptr %4) #13
  store i32 0, ptr %3, align 4, !tbaa !10
  br label %5

5:                                                ; preds = %25, %1
  %6 = load i32, ptr %3, align 4, !tbaa !10
  %7 = load ptr, ptr %2, align 8, !tbaa !32
  %8 = call i32 @Vec_IntSize(ptr noundef %7)
  %9 = icmp slt i32 %6, %8
  br i1 %9, label %10, label %14

10:                                               ; preds = %5
  %11 = load ptr, ptr %2, align 8, !tbaa !32
  %12 = load i32, ptr %3, align 4, !tbaa !10
  %13 = call i32 @Vec_IntEntry(ptr noundef %11, i32 noundef %12)
  store i32 %13, ptr %4, align 4, !tbaa !10
  br label %14

14:                                               ; preds = %10, %5
  %15 = phi i1 [ false, %5 ], [ true, %10 ]
  br i1 %15, label %16, label %28

16:                                               ; preds = %14
  %17 = load i32, ptr %4, align 4, !tbaa !10
  %18 = call i32 @Abc_LitIsCompl(i32 noundef %17)
  %19 = icmp ne i32 %18, 0
  br i1 %19, label %24, label %20

20:                                               ; preds = %16
  %21 = load i32, ptr %4, align 4, !tbaa !10
  %22 = call i32 @Abc_Lit2Var(i32 noundef %21)
  %23 = call i32 (ptr, ...) @printf(ptr noundef @.str.25, i32 noundef %22)
  br label %24

24:                                               ; preds = %20, %16
  br label %25

25:                                               ; preds = %24
  %26 = load i32, ptr %3, align 4, !tbaa !10
  %27 = add nsw i32 %26, 1
  store i32 %27, ptr %3, align 4, !tbaa !10
  br label %5, !llvm.loop !213

28:                                               ; preds = %14
  %29 = call i32 (ptr, ...) @printf(ptr noundef @.str.26)
  store i32 0, ptr %3, align 4, !tbaa !10
  br label %30

30:                                               ; preds = %50, %28
  %31 = load i32, ptr %3, align 4, !tbaa !10
  %32 = load ptr, ptr %2, align 8, !tbaa !32
  %33 = call i32 @Vec_IntSize(ptr noundef %32)
  %34 = icmp slt i32 %31, %33
  br i1 %34, label %35, label %39

35:                                               ; preds = %30
  %36 = load ptr, ptr %2, align 8, !tbaa !32
  %37 = load i32, ptr %3, align 4, !tbaa !10
  %38 = call i32 @Vec_IntEntry(ptr noundef %36, i32 noundef %37)
  store i32 %38, ptr %4, align 4, !tbaa !10
  br label %39

39:                                               ; preds = %35, %30
  %40 = phi i1 [ false, %30 ], [ true, %35 ]
  br i1 %40, label %41, label %53

41:                                               ; preds = %39
  %42 = load i32, ptr %4, align 4, !tbaa !10
  %43 = call i32 @Abc_LitIsCompl(i32 noundef %42)
  %44 = icmp ne i32 %43, 0
  br i1 %44, label %45, label %49

45:                                               ; preds = %41
  %46 = load i32, ptr %4, align 4, !tbaa !10
  %47 = call i32 @Abc_Lit2Var(i32 noundef %46)
  %48 = call i32 (ptr, ...) @printf(ptr noundef @.str.27, i32 noundef %47)
  br label %49

49:                                               ; preds = %45, %41
  br label %50

50:                                               ; preds = %49
  %51 = load i32, ptr %3, align 4, !tbaa !10
  %52 = add nsw i32 %51, 1
  store i32 %52, ptr %3, align 4, !tbaa !10
  br label %30, !llvm.loop !214

53:                                               ; preds = %39
  call void @llvm.lifetime.end.p0(i64 4, ptr %4) #13
  call void @llvm.lifetime.end.p0(i64 4, ptr %3) #13
  ret void
}

; Function Attrs: inlinehint nounwind uwtable
define internal ptr @Hsh_VecReadEntry(ptr noundef %0, i32 noundef %1) #2 {
  %3 = alloca ptr, align 8
  %4 = alloca i32, align 4
  %5 = alloca ptr, align 8
  store ptr %0, ptr %3, align 8, !tbaa !98
  store i32 %1, ptr %4, align 4, !tbaa !10
  call void @llvm.lifetime.start.p0(i64 8, ptr %5) #13
  %6 = load ptr, ptr %3, align 8, !tbaa !98
  %7 = load i32, ptr %4, align 4, !tbaa !10
  %8 = call ptr @Hsh_VecObj(ptr noundef %6, i32 noundef %7)
  store ptr %8, ptr %5, align 8, !tbaa !134
  %9 = load ptr, ptr %5, align 8, !tbaa !134
  %10 = getelementptr inbounds nuw %struct.Hsh_VecObj_t_, ptr %9, i32 0, i32 0
  %11 = load i32, ptr %10, align 4, !tbaa !136
  %12 = load ptr, ptr %3, align 8, !tbaa !98
  %13 = getelementptr inbounds nuw %struct.Hsh_VecMan_t_, ptr %12, i32 0, i32 3
  %14 = getelementptr inbounds nuw %struct.Vec_Int_t_, ptr %13, i32 0, i32 0
  store i32 %11, ptr %14, align 8, !tbaa !175
  %15 = load ptr, ptr %3, align 8, !tbaa !98
  %16 = getelementptr inbounds nuw %struct.Hsh_VecMan_t_, ptr %15, i32 0, i32 3
  %17 = getelementptr inbounds nuw %struct.Vec_Int_t_, ptr %16, i32 0, i32 1
  store i32 %11, ptr %17, align 4, !tbaa !176
  %18 = load ptr, ptr %5, align 8, !tbaa !134
  %19 = getelementptr inbounds i32, ptr %18, i64 2
  %20 = load ptr, ptr %3, align 8, !tbaa !98
  %21 = getelementptr inbounds nuw %struct.Hsh_VecMan_t_, ptr %20, i32 0, i32 3
  %22 = getelementptr inbounds nuw %struct.Vec_Int_t_, ptr %21, i32 0, i32 2
  store ptr %19, ptr %22, align 8, !tbaa !177
  %23 = load ptr, ptr %3, align 8, !tbaa !98
  %24 = getelementptr inbounds nuw %struct.Hsh_VecMan_t_, ptr %23, i32 0, i32 3
  call void @llvm.lifetime.end.p0(i64 8, ptr %5) #13
  ret ptr %24
}

; Function Attrs: inlinehint nounwind uwtable
define internal float @Vec_FltEntry(ptr noundef %0, i32 noundef %1) #2 {
  %3 = alloca ptr, align 8
  %4 = alloca i32, align 4
  store ptr %0, ptr %3, align 8, !tbaa !103
  store i32 %1, ptr %4, align 4, !tbaa !10
  %5 = load ptr, ptr %3, align 8, !tbaa !103
  %6 = getelementptr inbounds nuw %struct.Vec_Flt_t_, ptr %5, i32 0, i32 2
  %7 = load ptr, ptr %6, align 8, !tbaa !104
  %8 = load i32, ptr %4, align 4, !tbaa !10
  %9 = sext i32 %8 to i64
  %10 = getelementptr inbounds float, ptr %7, i64 %9
  %11 = load float, ptr %10, align 4, !tbaa !140
  ret float %11
}

; Function Attrs: inlinehint nounwind uwtable
define internal void @Fx_PrintDiv(ptr noundef %0, i32 noundef %1) #2 {
  %3 = alloca ptr, align 8
  %4 = alloca i32, align 4
  %5 = alloca i32, align 4
  store ptr %0, ptr %3, align 8, !tbaa !74
  store i32 %1, ptr %4, align 4, !tbaa !10
  call void @llvm.lifetime.start.p0(i64 4, ptr %5) #13
  %6 = load ptr, ptr %3, align 8, !tbaa !74
  %7 = getelementptr inbounds nuw %struct.Fx_Man_t_, ptr %6, i32 0, i32 19
  %8 = load i32, ptr %7, align 8, !tbaa !158
  %9 = call i32 (ptr, ...) @printf(ptr noundef @.str.19, i32 noundef %8)
  %10 = load i32, ptr %4, align 4, !tbaa !10
  %11 = call i32 (ptr, ...) @printf(ptr noundef @.str.20, i32 noundef %10)
  %12 = load ptr, ptr %3, align 8, !tbaa !74
  %13 = getelementptr inbounds nuw %struct.Fx_Man_t_, ptr %12, i32 0, i32 6
  %14 = load ptr, ptr %13, align 8, !tbaa !95
  %15 = load i32, ptr %4, align 4, !tbaa !10
  %16 = call float @Vec_FltEntry(ptr noundef %14, i32 noundef %15)
  %17 = fpext float %16 to double
  %18 = call i32 (ptr, ...) @printf(ptr noundef @.str.21, double noundef %17)
  %19 = load ptr, ptr %3, align 8, !tbaa !74
  %20 = getelementptr inbounds nuw %struct.Fx_Man_t_, ptr %19, i32 0, i32 5
  %21 = load ptr, ptr %20, align 8, !tbaa !94
  %22 = load i32, ptr %4, align 4, !tbaa !10
  %23 = call ptr @Hsh_VecReadEntry(ptr noundef %21, i32 noundef %22)
  call void @Fx_PrintDivArray(ptr noundef %23)
  %24 = load ptr, ptr %3, align 8, !tbaa !74
  %25 = getelementptr inbounds nuw %struct.Fx_Man_t_, ptr %24, i32 0, i32 5
  %26 = load ptr, ptr %25, align 8, !tbaa !94
  %27 = load i32, ptr %4, align 4, !tbaa !10
  %28 = call ptr @Hsh_VecReadEntry(ptr noundef %26, i32 noundef %27)
  %29 = call i32 @Vec_IntSize(ptr noundef %28)
  %30 = add nsw i32 %29, 3
  store i32 %30, ptr %5, align 4, !tbaa !10
  br label %31

31:                                               ; preds = %36, %2
  %32 = load i32, ptr %5, align 4, !tbaa !10
  %33 = icmp slt i32 %32, 16
  br i1 %33, label %34, label %39

34:                                               ; preds = %31
  %35 = call i32 (ptr, ...) @printf(ptr noundef @.str.22)
  br label %36

36:                                               ; preds = %34
  %37 = load i32, ptr %5, align 4, !tbaa !10
  %38 = add nsw i32 %37, 1
  store i32 %38, ptr %5, align 4, !tbaa !10
  br label %31, !llvm.loop !193

39:                                               ; preds = %31
  %40 = load ptr, ptr %3, align 8, !tbaa !74
  %41 = getelementptr inbounds nuw %struct.Fx_Man_t_, ptr %40, i32 0, i32 18
  %42 = load i32, ptr %41, align 4, !tbaa !118
  %43 = call i32 (ptr, ...) @printf(ptr noundef @.str.23, i32 noundef %42)
  %44 = load ptr, ptr %3, align 8, !tbaa !74
  %45 = getelementptr inbounds nuw %struct.Fx_Man_t_, ptr %44, i32 0, i32 5
  %46 = load ptr, ptr %45, align 8, !tbaa !94
  %47 = call i32 @Hsh_VecSize(ptr noundef %46)
  %48 = call i32 (ptr, ...) @printf(ptr noundef @.str.24, i32 noundef %47)
  %49 = call i64 @Abc_Clock()
  %50 = load ptr, ptr %3, align 8, !tbaa !74
  %51 = getelementptr inbounds nuw %struct.Fx_Man_t_, ptr %50, i32 0, i32 16
  %52 = load i64, ptr %51, align 8, !tbaa !82
  %53 = sub nsw i64 %49, %52
  call void @Abc_PrintTime(i32 noundef 1, ptr noundef @.str.14, i64 noundef %53)
  call void @llvm.lifetime.end.p0(i64 4, ptr %5) #13
  ret void
}