; Function Attrs: inlinehint nounwind uwtable
define internal fastcc void @Fx_PrintDiv(ptr noundef readonly captures(none) %0, i32 noundef %1) unnamed_addr #9 {
  %3 = alloca %struct.timespec, align 8
  %4 = getelementptr inbounds nuw i8, ptr %0, i64 136
  %5 = load i32, ptr %4, align 8, !tbaa !160
  %6 = tail call i32 (ptr, ...) @printf(ptr noundef nonnull dereferenceable(1) @.str.19, i32 noundef %5)
  %7 = tail call i32 (ptr, ...) @printf(ptr noundef nonnull dereferenceable(1) @.str.20, i32 noundef %1)
  %8 = getelementptr inbounds nuw i8, ptr %0, i64 40
  %9 = load ptr, ptr %8, align 8, !tbaa !75
  %10 = getelementptr i8, ptr %9, i64 8
  %.val12 = load ptr, ptr %10, align 8, !tbaa !110
  %11 = sext i32 %1 to i64
  %12 = getelementptr inbounds float, ptr %.val12, i64 %11
  %13 = load float, ptr %12, align 4, !tbaa !87
  %14 = fpext float %13 to double
  %15 = tail call i32 (ptr, ...) @printf(ptr noundef nonnull dereferenceable(1) @.str.21, double noundef %14)
  %16 = getelementptr inbounds nuw i8, ptr %0, i64 32
  %17 = load ptr, ptr %16, align 8, !tbaa !105
  %18 = icmp ne i32 %1, -1
  tail call void @llvm.assume(i1 %18)
  %19 = getelementptr inbounds nuw i8, ptr %17, i64 8
  %20 = load ptr, ptr %19, align 8, !tbaa !108
  %21 = getelementptr inbounds nuw i8, ptr %17, i64 16
  %22 = load ptr, ptr %21, align 8, !tbaa !109
  %23 = getelementptr i8, ptr %22, i64 8
  %.val.i.i = load ptr, ptr %23, align 8, !tbaa !38
  %24 = getelementptr inbounds i32, ptr %.val.i.i, i64 %11
  %25 = load i32, ptr %24, align 4, !tbaa !39
  %26 = getelementptr i8, ptr %20, i64 8
  %.val3.i.i = load ptr, ptr %26, align 8, !tbaa !38
  %27 = sext i32 %25 to i64
  %28 = getelementptr inbounds i32, ptr %.val3.i.i, i64 %27
  %29 = load i32, ptr %28, align 4, !tbaa !138
  %30 = getelementptr inbounds nuw i8, ptr %17, i64 24
  store i32 %29, ptr %30, align 8, !tbaa !140
  %31 = getelementptr i8, ptr %17, i64 28
  store i32 %29, ptr %31, align 4, !tbaa !141
  %32 = getelementptr inbounds nuw i8, ptr %28, i64 8
  %33 = getelementptr i8, ptr %17, i64 32
  store ptr %32, ptr %33, align 8, !tbaa !142
  %34 = icmp sgt i32 %29, 0
  br i1 %34, label %.lr.ph.i, label %.critedge.i

.lr.ph.i:                                         ; preds = %2, %41
  %.val1628.i = phi i32 [ %.val16.i, %41 ], [ %29, %2 ]
  %indvars.iv.i = phi i64 [ %indvars.iv.next.i, %41 ], [ 0, %2 ]
  %.val18.i = load ptr, ptr %33, align 8, !tbaa !38
  %35 = getelementptr inbounds nuw i32, ptr %.val18.i, i64 %indvars.iv.i
  %36 = load i32, ptr %35, align 4, !tbaa !39
  %37 = and i32 %36, 1
  %.not15.i = icmp eq i32 %37, 0
  br i1 %.not15.i, label %38, label %41

38:                                               ; preds = %.lr.ph.i
  %39 = ashr exact i32 %36, 1
  %40 = tail call i32 (ptr, ...) @printf(ptr noundef nonnull dereferenceable(1) @.str.25, i32 noundef %39)
  %.val16.pre.i = load i32, ptr %31, align 4, !tbaa !36
  br label %41

41:                                               ; preds = %38, %.lr.ph.i
  %.val16.i = phi i32 [ %.val1628.i, %.lr.ph.i ], [ %.val16.pre.i, %38 ]
  %indvars.iv.next.i = add nuw nsw i64 %indvars.iv.i, 1
  %42 = sext i32 %.val16.i to i64
  %43 = icmp slt i64 %indvars.iv.next.i, %42
  br i1 %43, label %.lr.ph.i, label %.critedge.i, !llvm.loop !192

.critedge.i:                                      ; preds = %41, %2
  %44 = tail call i32 (ptr, ...) @printf(ptr noundef nonnull dereferenceable(1) @.str.26)
  %.val21.i = load i32, ptr %31, align 4, !tbaa !36
  %45 = icmp sgt i32 %.val21.i, 0
  br i1 %45, label %.lr.ph23.i, label %Fx_PrintDivArray.exit

.lr.ph23.i:                                       ; preds = %.critedge.i, %52
  %.val30.i = phi i32 [ %.val.i, %52 ], [ %.val21.i, %.critedge.i ]
  %indvars.iv25.i = phi i64 [ %indvars.iv.next26.i, %52 ], [ 0, %.critedge.i ]
  %.val17.i = load ptr, ptr %33, align 8, !tbaa !38
  %46 = getelementptr inbounds nuw i32, ptr %.val17.i, i64 %indvars.iv25.i
  %47 = load i32, ptr %46, align 4, !tbaa !39
  %48 = and i32 %47, 1
  %.not.i = icmp eq i32 %48, 0
  br i1 %.not.i, label %52, label %49

49:                                               ; preds = %.lr.ph23.i
  %50 = ashr i32 %47, 1
  %51 = tail call i32 (ptr, ...) @printf(ptr noundef nonnull dereferenceable(1) @.str.27, i32 noundef %50)
  %.val.pre.i = load i32, ptr %31, align 4, !tbaa !36
  br label %52

52:                                               ; preds = %49, %.lr.ph23.i
  %.val.i = phi i32 [ %.val30.i, %.lr.ph23.i ], [ %.val.pre.i, %49 ]
  %indvars.iv.next26.i = add nuw nsw i64 %indvars.iv25.i, 1
  %53 = sext i32 %.val.i to i64
  %54 = icmp slt i64 %indvars.iv.next26.i, %53
  br i1 %54, label %.lr.ph23.i, label %Fx_PrintDivArray.exit, !llvm.loop !193

Fx_PrintDivArray.exit:                            ; preds = %52, %.critedge.i
  %55 = load ptr, ptr %16, align 8, !tbaa !105
  %56 = getelementptr inbounds nuw i8, ptr %55, i64 8
  %57 = load ptr, ptr %56, align 8, !tbaa !108
  %58 = getelementptr inbounds nuw i8, ptr %55, i64 16
  %59 = load ptr, ptr %58, align 8, !tbaa !109
  %60 = getelementptr i8, ptr %59, i64 8
  %.val.i.i14 = load ptr, ptr %60, align 8, !tbaa !38
  %61 = getelementptr inbounds i32, ptr %.val.i.i14, i64 %11
  %62 = load i32, ptr %61, align 4, !tbaa !39
  %63 = getelementptr i8, ptr %57, i64 8
  %.val3.i.i15 = load ptr, ptr %63, align 8, !tbaa !38
  %64 = sext i32 %62 to i64
  %65 = getelementptr inbounds i32, ptr %.val3.i.i15, i64 %64
  %66 = load i32, ptr %65, align 4, !tbaa !138
  %67 = getelementptr inbounds nuw i8, ptr %55, i64 24
  store i32 %66, ptr %67, align 8, !tbaa !140
  %68 = getelementptr inbounds nuw i8, ptr %55, i64 28
  store i32 %66, ptr %68, align 4, !tbaa !141
  %69 = getelementptr inbounds nuw i8, ptr %65, i64 8
  %70 = getelementptr inbounds nuw i8, ptr %55, i64 32
  store ptr %69, ptr %70, align 8, !tbaa !142
  %71 = icmp slt i32 %66, 13
  br i1 %71, label %.lr.ph.preheader, label %._crit_edge

.lr.ph.preheader:                                 ; preds = %Fx_PrintDivArray.exit
  %72 = add nsw i32 %66, 3
  br label %.lr.ph

.lr.ph:                                           ; preds = %.lr.ph.preheader, %.lr.ph
  %.016 = phi i32 [ %73, %.lr.ph ], [ %72, %.lr.ph.preheader ]
  %putchar = tail call i32 @putchar(i32 32)
  %73 = add i32 %.016, 1
  %exitcond.not = icmp eq i32 %73, 16
  br i1 %exitcond.not, label %._crit_edge, label %.lr.ph, !llvm.loop !194

._crit_edge:                                      ; preds = %.lr.ph, %Fx_PrintDivArray.exit
  %74 = getelementptr inbounds nuw i8, ptr %0, i64 132
  %75 = load i32, ptr %74, align 4, !tbaa !120
  %76 = tail call i32 (ptr, ...) @printf(ptr noundef nonnull dereferenceable(1) @.str.23, i32 noundef %75)
  %77 = load ptr, ptr %16, align 8, !tbaa !105
  %78 = getelementptr i8, ptr %77, i64 16
  %.val13 = load ptr, ptr %78, align 8, !tbaa !109
  %79 = getelementptr i8, ptr %.val13, i64 4
  %.val13.val = load i32, ptr %79, align 4, !tbaa !36
  %80 = tail call i32 (ptr, ...) @printf(ptr noundef nonnull dereferenceable(1) @.str.24, i32 noundef %.val13.val)
  call void @llvm.lifetime.start.p0(i64 16, ptr nonnull %3) #28
  %81 = call i32 @clock_gettime(i32 noundef 1, ptr noundef nonnull %3) #28
  %82 = icmp slt i32 %81, 0
  br i1 %82, label %Abc_Clock.exit, label %83

83:                                               ; preds = %._crit_edge
  %84 = load i64, ptr %3, align 8, !tbaa !64
  %85 = mul nsw i64 %84, 1000000
  %86 = getelementptr inbounds nuw i8, ptr %3, i64 8
  %87 = load i64, ptr %86, align 8, !tbaa !67
  %88 = sdiv i64 %87, 1000
  %89 = add nsw i64 %88, %85
  br label %Abc_Clock.exit

Abc_Clock.exit:                                   ; preds = %._crit_edge, %83
  %.0.i = phi i64 [ %89, %83 ], [ -1, %._crit_edge ]
  call void @llvm.lifetime.end.p0(i64 16, ptr nonnull %3) #28
  %90 = getelementptr inbounds nuw i8, ptr %0, i64 120
  %91 = load i64, ptr %90, align 8, !tbaa !79
  %92 = sub nsw i64 %.0.i, %91
  call void (i32, ptr, ...) @Abc_Print(i32 poison, ptr noundef nonnull @.str.15, ptr noundef nonnull @.str.14)
  %93 = sitofp i64 %92 to double
  %94 = fdiv double %93, 1.000000e+06
  call void (i32, ptr, ...) @Abc_Print(i32 poison, ptr noundef nonnull @.str.16, double noundef %94)
  ret void
}